target datalayout = "e-m:e-p270:32:32-p271:32:32-p272:64:64-i64:64-i128:128-f80:128-n8:16:32:64-S128"
target triple = "x86_64-pc-linux-gnu"

%struct.archive_write_filter = type { i64, ptr, ptr, ptr, ptr, ptr, ptr, ptr, ptr, ptr, ptr, i32, i32, i32, i32 }
%struct.private_data = type { i64, i64, i64, i32, i32, i32, [69001 x i32], [69001 x i16], i32, i32, i32, i32, i32, i8, ptr, i64, i64 }

; Function Attrs: nounwind uwtable
define internal i32 @archive_compressor_compress_write(ptr noundef %0, ptr noundef %1, i64 noundef %2) #0 {
  %4 = alloca i32, align 4
  %5 = alloca ptr, align 8
  %6 = alloca ptr, align 8
  %7 = alloca i64, align 8
  %8 = alloca ptr, align 8
  %9 = alloca i32, align 4
  %10 = alloca i32, align 4
  %11 = alloca i32, align 4
  %12 = alloca i32, align 4
  %13 = alloca i32, align 4
  %14 = alloca ptr, align 8
  %15 = alloca i32, align 4
  store ptr %0, ptr %5, align 8, !tbaa !11
  store ptr %1, ptr %6, align 8, !tbaa !49
  store i64 %2, ptr %7, align 8, !tbaa !21
  call void @llvm.lifetime.start.p0(i64 8, ptr %8) #7
  %16 = load ptr, ptr %5, align 8, !tbaa !11
  %17 = getelementptr inbounds nuw %struct.archive_write_filter, ptr %16, i32 0, i32 9
  %18 = load ptr, ptr %17, align 8, !tbaa !48
  store ptr %18, ptr %8, align 8, !tbaa !22
  call void @llvm.lifetime.start.p0(i64 4, ptr %9) #7
  call void @llvm.lifetime.start.p0(i64 4, ptr %10) #7
  call void @llvm.lifetime.start.p0(i64 4, ptr %11) #7
  call void @llvm.lifetime.start.p0(i64 4, ptr %12) #7
  call void @llvm.lifetime.start.p0(i64 4, ptr %13) #7
  call void @llvm.lifetime.start.p0(i64 8, ptr %14) #7
  %19 = load i64, ptr %7, align 8, !tbaa !21
  %20 = icmp eq i64 %19, 0
  br i1 %20, label %21, label %22

21:                                               ; preds = %3
  store i32 0, ptr %4, align 4
  store i32 1, ptr %15, align 4
  br label %264

22:                                               ; preds = %3
  %23 = load ptr, ptr %6, align 8, !tbaa !49
  store ptr %23, ptr %14, align 8, !tbaa !50
  %24 = load ptr, ptr %8, align 8, !tbaa !22
  %25 = getelementptr inbounds nuw %struct.private_data, ptr %24, i32 0, i32 0
  %26 = load i64, ptr %25, align 8, !tbaa !37
  %27 = icmp eq i64 %26, 0
  br i1 %27, label %28, label %41

28:                                               ; preds = %22
  %29 = load ptr, ptr %14, align 8, !tbaa !50
  %30 = getelementptr inbounds nuw i8, ptr %29, i32 1
  store ptr %30, ptr %14, align 8, !tbaa !50
  %31 = load i8, ptr %29, align 1, !tbaa !46
  %32 = zext i8 %31 to i32
  %33 = load ptr, ptr %8, align 8, !tbaa !22
  %34 = getelementptr inbounds nuw %struct.private_data, ptr %33, i32 0, i32 10
  store i32 %32, ptr %34, align 4, !tbaa !51
  %35 = load ptr, ptr %8, align 8, !tbaa !22
  %36 = getelementptr inbounds nuw %struct.private_data, ptr %35, i32 0, i32 0
  %37 = load i64, ptr %36, align 8, !tbaa !37
  %38 = add nsw i64 %37, 1
  store i64 %38, ptr %36, align 8, !tbaa !37
  %39 = load i64, ptr %7, align 8, !tbaa !21
  %40 = add i64 %39, -1
  store i64 %40, ptr %7, align 8, !tbaa !21
  br label %41

41:                                               ; preds = %28, %22
  br label %42

42:                                               ; preds = %262, %193, %166, %125, %79, %41
  %43 = load i64, ptr %7, align 8, !tbaa !21
  %44 = add i64 %43, -1
  store i64 %44, ptr %7, align 8, !tbaa !21
  %45 = icmp ne i64 %43, 0
  br i1 %45, label %46, label %263

46:                                               ; preds = %42
  %47 = load ptr, ptr %14, align 8, !tbaa !50
  %48 = getelementptr inbounds nuw i8, ptr %47, i32 1
  store ptr %48, ptr %14, align 8, !tbaa !50
  %49 = load i8, ptr %47, align 1, !tbaa !46
  %50 = zext i8 %49 to i32
  store i32 %50, ptr %11, align 4, !tbaa !13
  %51 = load ptr, ptr %8, align 8, !tbaa !22
  %52 = getelementptr inbounds nuw %struct.private_data, ptr %51, i32 0, i32 0
  %53 = load i64, ptr %52, align 8, !tbaa !37
  %54 = add nsw i64 %53, 1
  store i64 %54, ptr %52, align 8, !tbaa !37
  %55 = load i32, ptr %11, align 4, !tbaa !13
  %56 = shl i32 %55, 16
  %57 = load ptr, ptr %8, align 8, !tbaa !22
  %58 = getelementptr inbounds nuw %struct.private_data, ptr %57, i32 0, i32 10
  %59 = load i32, ptr %58, align 4, !tbaa !51
  %60 = or i32 %56, %59
  %61 = load ptr, ptr %8, align 8, !tbaa !22
  %62 = getelementptr inbounds nuw %struct.private_data, ptr %61, i32 0, i32 11
  store i32 %60, ptr %62, align 8, !tbaa !52
  %63 = load i32, ptr %11, align 4, !tbaa !13
  %64 = shl i32 %63, 8
  %65 = load ptr, ptr %8, align 8, !tbaa !22
  %66 = getelementptr inbounds nuw %struct.private_data, ptr %65, i32 0, i32 10
  %67 = load i32, ptr %66, align 4, !tbaa !51
  %68 = xor i32 %64, %67
  store i32 %68, ptr %9, align 4, !tbaa !13
  %69 = load ptr, ptr %8, align 8, !tbaa !22
  %70 = getelementptr inbounds nuw %struct.private_data, ptr %69, i32 0, i32 6
  %71 = load i32, ptr %9, align 4, !tbaa !13
  %72 = sext i32 %71 to i64
  %73 = getelementptr inbounds [69001 x i32], ptr %70, i64 0, i64 %72
  %74 = load i32, ptr %73, align 4, !tbaa !13
  %75 = load ptr, ptr %8, align 8, !tbaa !22
  %76 = getelementptr inbounds nuw %struct.private_data, ptr %75, i32 0, i32 11
  %77 = load i32, ptr %76, align 8, !tbaa !52
  %78 = icmp eq i32 %74, %77
  br i1 %78, label %79, label %89

79:                                               ; preds = %46
  %80 = load ptr, ptr %8, align 8, !tbaa !22
  %81 = getelementptr inbounds nuw %struct.private_data, ptr %80, i32 0, i32 7
  %82 = load i32, ptr %9, align 4, !tbaa !13
  %83 = sext i32 %82 to i64
  %84 = getelementptr inbounds [69001 x i16], ptr %81, i64 0, i64 %83
  %85 = load i16, ptr %84, align 2, !tbaa !53
  %86 = zext i16 %85 to i32
  %87 = load ptr, ptr %8, align 8, !tbaa !22
  %88 = getelementptr inbounds nuw %struct.private_data, ptr %87, i32 0, i32 10
  store i32 %86, ptr %88, align 4, !tbaa !51
  br label %42, !llvm.loop !55

89:                                               ; preds = %46
  %90 = load ptr, ptr %8, align 8, !tbaa !22
  %91 = getelementptr inbounds nuw %struct.private_data, ptr %90, i32 0, i32 6
  %92 = load i32, ptr %9, align 4, !tbaa !13
  %93 = sext i32 %92 to i64
  %94 = getelementptr inbounds [69001 x i32], ptr %91, i64 0, i64 %93
  %95 = load i32, ptr %94, align 4, !tbaa !13
  %96 = icmp slt i32 %95, 0
  br i1 %96, label %97, label %98

97:                                               ; preds = %89
  br label %145

98:                                               ; preds = %89
  %99 = load i32, ptr %9, align 4, !tbaa !13
  %100 = icmp eq i32 %99, 0
  br i1 %100, label %101, label %102

101:                                              ; preds = %98
  store i32 1, ptr %12, align 4, !tbaa !13
  br label %105

102:                                              ; preds = %98
  %103 = load i32, ptr %9, align 4, !tbaa !13
  %104 = sub nsw i32 69001, %103
  store i32 %104, ptr %12, align 4, !tbaa !13
  br label %105

105:                                              ; preds = %102, %101
  br label %106

106:                                              ; preds = %143, %105
  %107 = load i32, ptr %12, align 4, !tbaa !13
  %108 = load i32, ptr %9, align 4, !tbaa !13
  %109 = sub nsw i32 %108, %107
  store i32 %109, ptr %9, align 4, !tbaa !13
  %110 = icmp slt i32 %109, 0
  br i1 %110, label %111, label %114

111:                                              ; preds = %106
  %112 = load i32, ptr %9, align 4, !tbaa !13
  %113 = add nsw i32 %112, 69001
  store i32 %113, ptr %9, align 4, !tbaa !13
  br label %114

114:                                              ; preds = %111, %106
  %115 = load ptr, ptr %8, align 8, !tbaa !22
  %116 = getelementptr inbounds nuw %struct.private_data, ptr %115, i32 0, i32 6
  %117 = load i32, ptr %9, align 4, !tbaa !13
  %118 = sext i32 %117 to i64
  %119 = getelementptr inbounds [69001 x i32], ptr %116, i64 0, i64 %118
  %120 = load i32, ptr %119, align 4, !tbaa !13
  %121 = load ptr, ptr %8, align 8, !tbaa !22
  %122 = getelementptr inbounds nuw %struct.private_data, ptr %121, i32 0, i32 11
  %123 = load i32, ptr %122, align 8, !tbaa !52
  %124 = icmp eq i32 %120, %123
  br i1 %124, label %125, label %135

125:                                              ; preds = %114
  %126 = load ptr, ptr %8, align 8, !tbaa !22
  %127 = getelementptr inbounds nuw %struct.private_data, ptr %126, i32 0, i32 7
  %128 = load i32, ptr %9, align 4, !tbaa !13
  %129 = sext i32 %128 to i64
  %130 = getelementptr inbounds [69001 x i16], ptr %127, i64 0, i64 %129
  %131 = load i16, ptr %130, align 2, !tbaa !53
  %132 = zext i16 %131 to i32
  %133 = load ptr, ptr %8, align 8, !tbaa !22
  %134 = getelementptr inbounds nuw %struct.private_data, ptr %133, i32 0, i32 10
  store i32 %132, ptr %134, align 4, !tbaa !51
  br label %42, !llvm.loop !55

135:                                              ; preds = %114
  %136 = load ptr, ptr %8, align 8, !tbaa !22
  %137 = getelementptr inbounds nuw %struct.private_data, ptr %136, i32 0, i32 6
  %138 = load i32, ptr %9, align 4, !tbaa !13
  %139 = sext i32 %138 to i64
  %140 = getelementptr inbounds [69001 x i32], ptr %137, i64 0, i64 %139
  %141 = load i32, ptr %140, align 4, !tbaa !13
  %142 = icmp sge i32 %141, 0
  br i1 %142, label %143, label %144

143:                                              ; preds = %135
  br label %106

144:                                              ; preds = %135
  br label %145

145:                                              ; preds = %144, %97
  %146 = load ptr, ptr %5, align 8, !tbaa !11
  %147 = load ptr, ptr %8, align 8, !tbaa !22
  %148 = getelementptr inbounds nuw %struct.private_data, ptr %147, i32 0, i32 10
  %149 = load i32, ptr %148, align 4, !tbaa !51
  %150 = call i32 @output_code(ptr noundef %146, i32 noundef %149)
  store i32 %150, ptr %13, align 4, !tbaa !13
  %151 = load i32, ptr %13, align 4, !tbaa !13
  %152 = icmp ne i32 %151, 0
  br i1 %152, label %153, label %155

153:                                              ; preds = %145
  %154 = load i32, ptr %13, align 4, !tbaa !13
  store i32 %154, ptr %4, align 4
  store i32 1, ptr %15, align 4
  br label %264

155:                                              ; preds = %145
  %156 = load i32, ptr %11, align 4, !tbaa !13
  %157 = load ptr, ptr %8, align 8, !tbaa !22
  %158 = getelementptr inbounds nuw %struct.private_data, ptr %157, i32 0, i32 10
  store i32 %156, ptr %158, align 4, !tbaa !51
  %159 = load ptr, ptr %8, align 8, !tbaa !22
  %160 = getelementptr inbounds nuw %struct.private_data, ptr %159, i32 0, i32 8
  %161 = load i32, ptr %160, align 4, !tbaa !45
  %162 = load ptr, ptr %8, align 8, !tbaa !22
  %163 = getelementptr inbounds nuw %struct.private_data, ptr %162, i32 0, i32 5
  %164 = load i32, ptr %163, align 8, !tbaa !36
  %165 = icmp slt i32 %161, %164
  br i1 %165, label %166, label %185

166:                                              ; preds = %155
  %167 = load ptr, ptr %8, align 8, !tbaa !22
  %168 = getelementptr inbounds nuw %struct.private_data, ptr %167, i32 0, i32 8
  %169 = load i32, ptr %168, align 4, !tbaa !45
  %170 = add nsw i32 %169, 1
  store i32 %170, ptr %168, align 4, !tbaa !45
  %171 = trunc i32 %169 to i16
  %172 = load ptr, ptr %8, align 8, !tbaa !22
  %173 = getelementptr inbounds nuw %struct.private_data, ptr %172, i32 0, i32 7
  %174 = load i32, ptr %9, align 4, !tbaa !13
  %175 = sext i32 %174 to i64
  %176 = getelementptr inbounds [69001 x i16], ptr %173, i64 0, i64 %175
  store i16 %171, ptr %176, align 2, !tbaa !53
  %177 = load ptr, ptr %8, align 8, !tbaa !22
  %178 = getelementptr inbounds nuw %struct.private_data, ptr %177, i32 0, i32 11
  %179 = load i32, ptr %178, align 8, !tbaa !52
  %180 = load ptr, ptr %8, align 8, !tbaa !22
  %181 = getelementptr inbounds nuw %struct.private_data, ptr %180, i32 0, i32 6
  %182 = load i32, ptr %9, align 4, !tbaa !13
  %183 = sext i32 %182 to i64
  %184 = getelementptr inbounds [69001 x i32], ptr %181, i64 0, i64 %183
  store i32 %179, ptr %184, align 4, !tbaa !13
  br label %42, !llvm.loop !55

185:                                              ; preds = %155
  %186 = load ptr, ptr %8, align 8, !tbaa !22
  %187 = getelementptr inbounds nuw %struct.private_data, ptr %186, i32 0, i32 0
  %188 = load i64, ptr %187, align 8, !tbaa !37
  %189 = load ptr, ptr %8, align 8, !tbaa !22
  %190 = getelementptr inbounds nuw %struct.private_data, ptr %189, i32 0, i32 2
  %191 = load i64, ptr %190, align 8, !tbaa !42
  %192 = icmp slt i64 %188, %191
  br i1 %192, label %193, label %194

193:                                              ; preds = %185
  br label %42, !llvm.loop !55

194:                                              ; preds = %185
  %195 = load ptr, ptr %8, align 8, !tbaa !22
  %196 = getelementptr inbounds nuw %struct.private_data, ptr %195, i32 0, i32 0
  %197 = load i64, ptr %196, align 8, !tbaa !37
  %198 = add nsw i64 %197, 10000
  %199 = load ptr, ptr %8, align 8, !tbaa !22
  %200 = getelementptr inbounds nuw %struct.private_data, ptr %199, i32 0, i32 2
  store i64 %198, ptr %200, align 8, !tbaa !42
  %201 = load ptr, ptr %8, align 8, !tbaa !22
  %202 = getelementptr inbounds nuw %struct.private_data, ptr %201, i32 0, i32 0
  %203 = load i64, ptr %202, align 8, !tbaa !37
  %204 = icmp sle i64 %203, 8388607
  br i1 %204, label %205, label %220

205:                                              ; preds = %194
  %206 = load ptr, ptr %8, align 8, !tbaa !22
  %207 = getelementptr inbounds nuw %struct.private_data, ptr %206, i32 0, i32 1
  %208 = load i64, ptr %207, align 8, !tbaa !40
  %209 = icmp ne i64 %208, 0
  br i1 %209, label %210, label %220

210:                                              ; preds = %205
  %211 = load ptr, ptr %8, align 8, !tbaa !22
  %212 = getelementptr inbounds nuw %struct.private_data, ptr %211, i32 0, i32 0
  %213 = load i64, ptr %212, align 8, !tbaa !37
  %214 = mul nsw i64 %213, 256
  %215 = load ptr, ptr %8, align 8, !tbaa !22
  %216 = getelementptr inbounds nuw %struct.private_data, ptr %215, i32 0, i32 1
  %217 = load i64, ptr %216, align 8, !tbaa !40
  %218 = sdiv i64 %214, %217
  %219 = trunc i64 %218 to i32
  store i32 %219, ptr %10, align 4, !tbaa !13
  br label %237

220:                                              ; preds = %205, %194
  %221 = load ptr, ptr %8, align 8, !tbaa !22
  %222 = getelementptr inbounds nuw %struct.private_data, ptr %221, i32 0, i32 1
  %223 = load i64, ptr %222, align 8, !tbaa !40
  %224 = sdiv i64 %223, 256
  %225 = trunc i64 %224 to i32
  store i32 %225, ptr %10, align 4, !tbaa !13
  %226 = icmp eq i32 %225, 0
  br i1 %226, label %227, label %228

227:                                              ; preds = %220
  store i32 2147483647, ptr %10, align 4, !tbaa !13
  br label %236

228:                                              ; preds = %220
  %229 = load ptr, ptr %8, align 8, !tbaa !22
  %230 = getelementptr inbounds nuw %struct.private_data, ptr %229, i32 0, i32 0
  %231 = load i64, ptr %230, align 8, !tbaa !37
  %232 = load i32, ptr %10, align 4, !tbaa !13
  %233 = sext i32 %232 to i64
  %234 = sdiv i64 %231, %233
  %235 = trunc i64 %234 to i32
  store i32 %235, ptr %10, align 4, !tbaa !13
  br label %236

236:                                              ; preds = %228, %227
  br label %237

237:                                              ; preds = %236, %210
  %238 = load i32, ptr %10, align 4, !tbaa !13
  %239 = load ptr, ptr %8, align 8, !tbaa !22
  %240 = getelementptr inbounds nuw %struct.private_data, ptr %239, i32 0, i32 9
  %241 = load i32, ptr %240, align 8, !tbaa !41
  %242 = icmp sgt i32 %238, %241
  br i1 %242, label %243, label %247

243:                                              ; preds = %237
  %244 = load i32, ptr %10, align 4, !tbaa !13
  %245 = load ptr, ptr %8, align 8, !tbaa !22
  %246 = getelementptr inbounds nuw %struct.private_data, ptr %245, i32 0, i32 9
  store i32 %244, ptr %246, align 8, !tbaa !41
  br label %262

247:                                              ; preds = %237
  %248 = load ptr, ptr %8, align 8, !tbaa !22
  %249 = getelementptr inbounds nuw %struct.private_data, ptr %248, i32 0, i32 9
  store i32 0, ptr %249, align 8, !tbaa !41
  %250 = load ptr, ptr %8, align 8, !tbaa !22
  %251 = getelementptr inbounds nuw %struct.private_data, ptr %250, i32 0, i32 6
  %252 = getelementptr inbounds [69001 x i32], ptr %251, i64 0, i64 0
  call void @llvm.memset.p0.i64(ptr align 4 %252, i8 -1, i64 276004, i1 false)
  %253 = load ptr, ptr %8, align 8, !tbaa !22
  %254 = getelementptr inbounds nuw %struct.private_data, ptr %253, i32 0, i32 8
  store i32 257, ptr %254, align 4, !tbaa !45
  %255 = load ptr, ptr %5, align 8, !tbaa !11
  %256 = call i32 @output_code(ptr noundef %255, i32 noundef 256)
  store i32 %256, ptr %13, align 4, !tbaa !13
  %257 = load i32, ptr %13, align 4, !tbaa !13
  %258 = icmp ne i32 %257, 0
  br i1 %258, label %259, label %261

259:                                              ; preds = %247
  %260 = load i32, ptr %13, align 4, !tbaa !13
  store i32 %260, ptr %4, align 4
  store i32 1, ptr %15, align 4
  br label %264

261:                                              ; preds = %247
  br label %262

262:                                              ; preds = %261, %243
  br label %42, !llvm.loop !55

263:                                              ; preds = %42
  store i32 0, ptr %4, align 4
  store i32 1, ptr %15, align 4
  br label %264

264:                                              ; preds = %263, %259, %153, %21
  call void @llvm.lifetime.end.p0(i64 8, ptr %14) #7
  call void @llvm.lifetime.end.p0(i64 4, ptr %13) #7
  call void @llvm.lifetime.end.p0(i64 4, ptr %12) #7
  call void @llvm.lifetime.end.p0(i64 4, ptr %11) #7
  call void @llvm.lifetime.end.p0(i64 4, ptr %10) #7
  call void @llvm.lifetime.end.p0(i64 4, ptr %9) #7
  call void @llvm.lifetime.end.p0(i64 8, ptr %8) #7
  %265 = load i32, ptr %4, align 4
  ret i32 %265
}