; Function Attrs: nounwind uwtable
define internal range(i32 -30, 1) i32 @archive_compressor_compress_write(ptr noundef readonly captures(none) %0, ptr noundef readonly captures(none) %1, i64 noundef %2) #0 {
  %4 = getelementptr inbounds nuw i8, ptr %0, i64 72
  %5 = load ptr, ptr %4, align 8, !tbaa !36
  %6 = icmp eq i64 %2, 0
  br i1 %6, label %.loopexit95, label %7

7:                                                ; preds = %3
  %8 = load i64, ptr %5, align 8, !tbaa !37
  %9 = icmp eq i64 %8, 0
  br i1 %9, label %10, label %.lr.ph

10:                                               ; preds = %7
  %11 = getelementptr inbounds nuw i8, ptr %1, i64 1
  %12 = load i8, ptr %1, align 1, !tbaa !34
  %13 = zext i8 %12 to i32
  %14 = getelementptr inbounds nuw i8, ptr %5, i64 414052
  store i32 %13, ptr %14, align 4, !tbaa !38
  store i64 1, ptr %5, align 8, !tbaa !37
  %15 = add i64 %2, -1
  %.not98 = icmp eq i64 %15, 0
  br i1 %.not98, label %.loopexit95, label %.lr.ph

.lr.ph:                                           ; preds = %7, %10
  %.0110 = phi ptr [ %11, %10 ], [ %1, %7 ]
  %.077109 = phi i64 [ %15, %10 ], [ %2, %7 ]
  %16 = getelementptr inbounds nuw i8, ptr %5, i64 414052
  %17 = getelementptr inbounds nuw i8, ptr %5, i64 414056
  %18 = getelementptr inbounds nuw i8, ptr %5, i64 36
  %19 = getelementptr inbounds nuw i8, ptr %5, i64 276040
  %20 = getelementptr inbounds nuw i8, ptr %5, i64 414044
  %21 = getelementptr inbounds nuw i8, ptr %5, i64 32
  %22 = getelementptr inbounds nuw i8, ptr %5, i64 16
  %23 = getelementptr inbounds nuw i8, ptr %5, i64 8
  %24 = getelementptr inbounds nuw i8, ptr %5, i64 414048
  br label %25

25:                                               ; preds = %.lr.ph, %.backedge
  %.in = phi i64 [ %.077109, %.lr.ph ], [ %26, %.backedge ]
  %.199 = phi ptr [ %.0110, %.lr.ph ], [ %27, %.backedge ]
  %26 = add i64 %.in, -1
  %27 = getelementptr inbounds nuw i8, ptr %.199, i64 1
  %28 = load i8, ptr %.199, align 1, !tbaa !34
  %29 = zext i8 %28 to i32
  %30 = load i64, ptr %5, align 8, !tbaa !37
  %31 = add nsw i64 %30, 1
  store i64 %31, ptr %5, align 8, !tbaa !37
  %32 = shl nuw nsw i32 %29, 16
  %33 = load i32, ptr %16, align 4, !tbaa !38
  %34 = or i32 %33, %32
  store i32 %34, ptr %17, align 8, !tbaa !39
  %35 = shl nuw nsw i32 %29, 8
  %36 = xor i32 %33, %35
  %37 = sext i32 %36 to i64
  %38 = getelementptr inbounds [69001 x i32], ptr %18, i64 0, i64 %37
  %39 = load i32, ptr %38, align 4, !tbaa !40
  %40 = icmp eq i32 %39, %34
  br i1 %40, label %41, label %45

41:                                               ; preds = %25
  %42 = getelementptr inbounds [69001 x i16], ptr %19, i64 0, i64 %37
  %43 = load i16, ptr %42, align 2, !tbaa !41
  %44 = zext i16 %43 to i32
  store i32 %44, ptr %16, align 4, !tbaa !38
  br label %.backedge

.backedge:                                        ; preds = %97, %98, %41, %57, %68, %75
  %.not = icmp eq i64 %26, 0
  br i1 %.not, label %.loopexit95, label %25, !llvm.loop !43

45:                                               ; preds = %25
  %46 = icmp slt i32 %39, 0
  br i1 %46, label %.loopexit, label %47

47:                                               ; preds = %45
  %48 = icmp eq i32 %35, %33
  %.neg = add i32 %36, -69001
  %.072.neg = select i1 %48, i32 -1, i32 %.neg
  br label %49

49:                                               ; preds = %61, %47
  %.176 = phi i32 [ %36, %47 ], [ %spec.select, %61 ]
  %50 = add i32 %.176, %.072.neg
  %51 = icmp slt i32 %50, 0
  %52 = add nsw i32 %50, 69001
  %spec.select = select i1 %51, i32 %52, i32 %50
  %53 = sext i32 %spec.select to i64
  %54 = getelementptr inbounds [69001 x i32], ptr %18, i64 0, i64 %53
  %55 = load i32, ptr %54, align 4, !tbaa !40
  %56 = icmp eq i32 %55, %34
  br i1 %56, label %57, label %61

57:                                               ; preds = %49
  %58 = getelementptr inbounds [69001 x i16], ptr %19, i64 0, i64 %53
  %59 = load i16, ptr %58, align 2, !tbaa !41
  %60 = zext i16 %59 to i32
  store i32 %60, ptr %16, align 4, !tbaa !38
  br label %.backedge

61:                                               ; preds = %49
  %62 = icmp sgt i32 %55, -1
  br i1 %62, label %49, label %.loopexit

.loopexit:                                        ; preds = %61, %45
  %.075 = phi i32 [ %36, %45 ], [ %spec.select, %61 ]
  %63 = tail call fastcc i32 @output_code(ptr noundef %0, i32 noundef %33)
  %.not92 = icmp eq i32 %63, 0
  br i1 %.not92, label %64, label %.loopexit95

64:                                               ; preds = %.loopexit
  store i32 %29, ptr %16, align 4, !tbaa !38
  %65 = load i32, ptr %20, align 4, !tbaa !33
  %66 = load i32, ptr %21, align 8, !tbaa !28
  %67 = icmp slt i32 %65, %66
  br i1 %67, label %68, label %75

68:                                               ; preds = %64
  %69 = add nsw i32 %65, 1
  store i32 %69, ptr %20, align 4, !tbaa !33
  %70 = trunc i32 %65 to i16
  %71 = sext i32 %.075 to i64
  %72 = getelementptr inbounds [69001 x i16], ptr %19, i64 0, i64 %71
  store i16 %70, ptr %72, align 2, !tbaa !41
  %73 = load i32, ptr %17, align 8, !tbaa !39
  %74 = getelementptr inbounds [69001 x i32], ptr %18, i64 0, i64 %71
  store i32 %73, ptr %74, align 4, !tbaa !40
  br label %.backedge

75:                                               ; preds = %64
  %76 = load i64, ptr %5, align 8, !tbaa !37
  %77 = load i64, ptr %22, align 8, !tbaa !30
  %78 = icmp slt i64 %76, %77
  br i1 %78, label %.backedge, label %79

79:                                               ; preds = %75
  %80 = add nsw i64 %76, 10000
  store i64 %80, ptr %22, align 8, !tbaa !30
  %81 = icmp slt i64 %76, 8388608
  %.pre = load i64, ptr %23, align 8, !tbaa !29
  br i1 %81, label %82, label %87

82:                                               ; preds = %79
  %.not93 = icmp eq i64 %.pre, 0
  br i1 %.not93, label %.thread111, label %83

83:                                               ; preds = %82
  %84 = shl nsw i64 %76, 8
  %85 = sdiv i64 %84, %.pre
  %86 = trunc i64 %85 to i32
  br label %.thread111

87:                                               ; preds = %79
  %88 = sdiv i64 %.pre, 256
  %89 = and i64 %88, 4294967295
  %90 = icmp eq i64 %89, 0
  br i1 %90, label %.thread111, label %91

91:                                               ; preds = %87
  %sext = shl i64 %88, 32
  %92 = ashr exact i64 %sext, 32
  %93 = sdiv i64 %76, %92
  %94 = trunc i64 %93 to i32
  br label %.thread111

.thread111:                                       ; preds = %82, %87, %91, %83
  %.074 = phi i32 [ %86, %83 ], [ %94, %91 ], [ 2147483647, %87 ], [ 2147483647, %82 ]
  %95 = load i32, ptr %24, align 8, !tbaa !45
  %96 = icmp sgt i32 %.074, %95
  br i1 %96, label %97, label %98

97:                                               ; preds = %.thread111
  store i32 %.074, ptr %24, align 8, !tbaa !45
  br label %.backedge

98:                                               ; preds = %.thread111
  store i32 0, ptr %24, align 8, !tbaa !45
  tail call void @llvm.memset.p0.i64(ptr noundef nonnull align 4 dereferenceable(276004) %18, i8 -1, i64 276004, i1 false)
  store i32 257, ptr %20, align 4, !tbaa !33
  %99 = tail call fastcc i32 @output_code(ptr noundef %0, i32 noundef 256)
  %.not94 = icmp eq i32 %99, 0
  br i1 %.not94, label %.backedge, label %.loopexit95

.loopexit95:                                      ; preds = %.loopexit, %98, %.backedge, %10, %3
  %.073 = phi i32 [ 0, %3 ], [ 0, %10 ], [ %63, %.loopexit ], [ %99, %98 ], [ 0, %.backedge ]
  ret i32 %.073
}